target datalayout = "e-m:e-p270:32:32-p271:32:32-p272:64:64-i64:64-i128:128-f80:128-n8:16:32:64-S128"
target triple = "x86_64-pc-linux-gnu"

%struct.IndexTupleData = type { %struct.ItemPointerData, i16 }
%struct.ItemPointerData = type { %struct.BlockIdData, i16 }
%struct.BlockIdData = type { i16, i16 }

@.str.1 = private unnamed_addr constant [10 x i8] c"nbtxlog.c\00", align 1
@.str.9 = private unnamed_addr constant [42 x i8] c"_bt_restore_page: cannot add item to page\00", align 1
@__func__._bt_restore_page = private unnamed_addr constant [17 x i8] c"_bt_restore_page\00", align 1

; Function Attrs: inlinehint nounwind uwtable
define internal i64 @IndexTupleSize(ptr noundef %0) #2 {
  %2 = alloca ptr, align 8
  store ptr %0, ptr %2, align 8
  %3 = load ptr, ptr %2, align 8
  %4 = getelementptr inbounds nuw %struct.IndexTupleData, ptr %3, i32 0, i32 1
  %5 = load i16, ptr %4, align 2
  %6 = zext i16 %5 to i32
  %7 = and i32 %6, 8191
  %8 = sext i32 %7 to i64
  ret i64 %8
}

; Function Attrs: nounwind uwtable
define internal void @_bt_restore_page(ptr noundef %0, ptr noundef %1, i32 noundef %2) #0 {
  %4 = alloca ptr, align 8
  %5 = alloca ptr, align 8
  %6 = alloca i32, align 4
  %7 = alloca %struct.IndexTupleData, align 2
  %8 = alloca i64, align 8
  %9 = alloca ptr, align 8
  %10 = alloca [408 x ptr], align 16
  %11 = alloca [408 x i16], align 16
  %12 = alloca i32, align 4
  %13 = alloca i32, align 4
  store ptr %0, ptr %4, align 8
  store ptr %1, ptr %5, align 8
  store i32 %2, ptr %6, align 4
  call void @llvm.lifetime.start.p0(i64 8, ptr %7) #7
  call void @llvm.lifetime.start.p0(i64 8, ptr %8) #7
  call void @llvm.lifetime.start.p0(i64 8, ptr %9) #7
  %14 = load ptr, ptr %5, align 8
  %15 = load i32, ptr %6, align 4
  %16 = sext i32 %15 to i64
  %17 = getelementptr inbounds i8, ptr %14, i64 %16
  store ptr %17, ptr %9, align 8
  call void @llvm.lifetime.start.p0(i64 3264, ptr %10) #7
  call void @llvm.lifetime.start.p0(i64 816, ptr %11) #7
  call void @llvm.lifetime.start.p0(i64 4, ptr %12) #7
  call void @llvm.lifetime.start.p0(i64 4, ptr %13) #7
  store i32 0, ptr %12, align 4
  br label %18

18:                                               ; preds = %22, %3
  %19 = load ptr, ptr %5, align 8
  %20 = load ptr, ptr %9, align 8
  %21 = icmp ult ptr %19, %20
  br i1 %21, label %22, label %42

22:                                               ; preds = %18
  %23 = load ptr, ptr %5, align 8
  call void @llvm.memcpy.p0.p0.i64(ptr align 2 %7, ptr align 1 %23, i64 8, i1 false)
  %24 = call i64 @IndexTupleSize(ptr noundef %7)
  store i64 %24, ptr %8, align 8
  %25 = load i64, ptr %8, align 8
  %26 = add i64 %25, 7
  %27 = and i64 %26, -8
  store i64 %27, ptr %8, align 8
  %28 = load ptr, ptr %5, align 8
  %29 = load i32, ptr %12, align 4
  %30 = sext i32 %29 to i64
  %31 = getelementptr inbounds [408 x ptr], ptr %10, i64 0, i64 %30
  store ptr %28, ptr %31, align 8
  %32 = load i64, ptr %8, align 8
  %33 = trunc i64 %32 to i16
  %34 = load i32, ptr %12, align 4
  %35 = sext i32 %34 to i64
  %36 = getelementptr inbounds [408 x i16], ptr %11, i64 0, i64 %35
  store i16 %33, ptr %36, align 2
  %37 = load i32, ptr %12, align 4
  %38 = add i32 %37, 1
  store i32 %38, ptr %12, align 4
  %39 = load i64, ptr %8, align 8
  %40 = load ptr, ptr %5, align 8
  %41 = getelementptr inbounds nuw i8, ptr %40, i64 %39
  store ptr %41, ptr %5, align 8
  br label %18, !llvm.loop !11

42:                                               ; preds = %18
  %43 = load i32, ptr %12, align 4
  store i32 %43, ptr %13, align 4
  %44 = load i32, ptr %13, align 4
  %45 = sub i32 %44, 1
  store i32 %45, ptr %12, align 4
  br label %46

46:                                               ; preds = %79, %42
  %47 = load i32, ptr %12, align 4
  %48 = icmp sge i32 %47, 0
  br i1 %48, label %49, label %82

49:                                               ; preds = %46
  %50 = load ptr, ptr %4, align 8
  %51 = load i32, ptr %12, align 4
  %52 = sext i32 %51 to i64
  %53 = getelementptr inbounds [408 x ptr], ptr %10, i64 0, i64 %52
  %54 = load ptr, ptr %53, align 8
  %55 = load i32, ptr %12, align 4
  %56 = sext i32 %55 to i64
  %57 = getelementptr inbounds [408 x i16], ptr %11, i64 0, i64 %56
  %58 = load i16, ptr %57, align 2
  %59 = zext i16 %58 to i64
  %60 = load i32, ptr %13, align 4
  %61 = load i32, ptr %12, align 4
  %62 = sub i32 %60, %61
  %63 = trunc i32 %62 to i16
  %64 = call zeroext i16 @PageAddItemExtended(ptr noundef %50, ptr noundef %54, i64 noundef %59, i16 noundef zeroext %63, i32 noundef 0)
  %65 = zext i16 %64 to i32
  %66 = icmp eq i32 %65, 0
  br i1 %66, label %67, label %78

67:                                               ; preds = %49
  br label %68

68:                                               ; preds = %67
  br i1 true, label %69, label %71

69:                                               ; preds = %68
  %70 = call zeroext i1 @errstart_cold(i32 noundef 23, ptr noundef null) #8
  br i1 %70, label %73, label %75

71:                                               ; preds = %68
  %72 = call zeroext i1 @errstart(i32 noundef 23, ptr noundef null)
  br i1 %72, label %73, label %75

73:                                               ; preds = %71, %69
  %74 = call i32 (ptr, ...) @errmsg_internal(ptr noundef @.str.9)
  call void @errfinish(ptr noundef @.str.1, i32 noundef 77, ptr noundef @__func__._bt_restore_page)
  br label %75

75:                                               ; preds = %73, %71, %69
  unreachable

76:                                               ; No predecessors!
  br label %77

77:                                               ; preds = %76
  br label %78

78:                                               ; preds = %77, %49
  br label %79

79:                                               ; preds = %78
  %80 = load i32, ptr %12, align 4
  %81 = add i32 %80, -1
  store i32 %81, ptr %12, align 4
  br label %46, !llvm.loop !12

82:                                               ; preds = %46
  call void @llvm.lifetime.end.p0(i64 4, ptr %13) #7
  call void @llvm.lifetime.end.p0(i64 4, ptr %12) #7
  call void @llvm.lifetime.end.p0(i64 816, ptr %11) #7
  call void @llvm.lifetime.end.p0(i64 3264, ptr %10) #7
  call void @llvm.lifetime.end.p0(i64 8, ptr %9) #7
  call void @llvm.lifetime.end.p0(i64 8, ptr %8) #7
  call void @llvm.lifetime.end.p0(i64 8, ptr %7) #7
  ret void
}