; Function Attrs: nounwind uwtable
define internal fastcc void @_bt_restore_page(ptr noundef %0, ptr noundef %1, i32 noundef %2) unnamed_addr #0 {
  %4 = alloca [408 x ptr], align 16
  %5 = alloca [408 x i16], align 16
  %6 = sext i32 %2 to i64
  %7 = getelementptr inbounds i8, ptr %1, i64 %6
  call void @llvm.lifetime.start.p0(i64 3264, ptr nonnull %4) #7
  call void @llvm.lifetime.start.p0(i64 816, ptr nonnull %5) #7
  %8 = icmp sgt i32 %2, 0
  br i1 %8, label %.lr.ph, label %.preheader

.preheader:                                       ; preds = %.lr.ph, %3
  %.021.lcssa = phi i32 [ 0, %3 ], [ %18, %.lr.ph ]
  %9 = zext i32 %.021.lcssa to i64
  br label %21

.lr.ph:                                           ; preds = %3, %.lr.ph
  %.023 = phi ptr [ %19, %.lr.ph ], [ %1, %3 ]
  %.02122 = phi i32 [ %18, %.lr.ph ], [ 0, %3 ]
  %10 = load i64, ptr %.023, align 1
  %.sroa.3.0.extract.shift = lshr i64 %10, 48
  %11 = and i64 %.sroa.3.0.extract.shift, 8191
  %12 = add nuw nsw i64 %11, 7
  %13 = and i64 %12, 16376
  %14 = sext i32 %.02122 to i64
  %15 = getelementptr inbounds [408 x ptr], ptr %4, i64 0, i64 %14
  store ptr %.023, ptr %15, align 8
  %16 = trunc nuw nsw i64 %13 to i16
  %17 = getelementptr inbounds [408 x i16], ptr %5, i64 0, i64 %14
  store i16 %16, ptr %17, align 2
  %18 = add i32 %.02122, 1
  %19 = getelementptr inbounds nuw i8, ptr %.023, i64 %13
  %20 = icmp ult ptr %19, %7
  br i1 %20, label %.lr.ph, label %.preheader, !llvm.loop !9

21:                                               ; preds = %.preheader, %23
  %indvars.iv = phi i64 [ %9, %.preheader ], [ %indvars.iv.next, %23 ]
  %indvars.iv.next = add nsw i64 %indvars.iv, -1
  %indvars = trunc i64 %indvars.iv.next to i32
  %22 = icmp sgt i32 %indvars, -1
  br i1 %22, label %23, label %37

23:                                               ; preds = %21
  %24 = and i64 %indvars.iv.next, 2147483647
  %25 = getelementptr inbounds nuw [408 x ptr], ptr %4, i64 0, i64 %24
  %26 = load ptr, ptr %25, align 8
  %27 = getelementptr inbounds nuw [408 x i16], ptr %5, i64 0, i64 %24
  %28 = load i16, ptr %27, align 2
  %29 = zext i16 %28 to i64
  %30 = sub i32 %.021.lcssa, %indvars
  %31 = trunc i32 %30 to i16
  %32 = tail call zeroext i16 @PageAddItemExtended(ptr noundef %0, ptr noundef %26, i64 noundef %29, i16 noundef zeroext %31, i32 noundef 0) #7
  %33 = icmp eq i16 %32, 0
  br i1 %33, label %34, label %21, !llvm.loop !10

34:                                               ; preds = %23
  %35 = tail call zeroext i1 @errstart_cold(i32 noundef 23, ptr noundef null) #8
  tail call void @llvm.assume(i1 %35)
  %36 = tail call i32 (ptr, ...) @errmsg_internal(ptr noundef nonnull @.str.9) #7
  tail call void @errfinish(ptr noundef nonnull @.str.1, i32 noundef 77, ptr noundef nonnull @__func__._bt_restore_page) #7
  unreachable

37:                                               ; preds = %21
  call void @llvm.lifetime.end.p0(i64 816, ptr nonnull %5) #7
  call void @llvm.lifetime.end.p0(i64 3264, ptr nonnull %4) #7
  ret void
}